target datalayout = "e-m:e-p270:32:32-p271:32:32-p272:64:64-i64:64-i128:128-f80:128-n8:16:32:64-S128"
target triple = "x86_64-pc-linux-gnu"

%struct.AVPacket = type { ptr, i64, i64, ptr, i32, i32, i32, ptr, i32, i64, i64, ptr, ptr, %struct.AVRational }
%struct.AVRational = type { i32, i32 }
%struct.AVCodecContext = type { ptr, i32, i32, ptr, i32, i32, ptr, ptr, ptr, i64, i32, i32, ptr, i32, %struct.AVRational, %struct.AVRational, %struct.AVRational, i32, i32, i32, i32, i32, %struct.AVRational, i32, i32, i32, i32, i32, i32, i32, i32, i32, i32, i32, ptr, ptr, i32, float, float, float, float, float, float, float, float, float, i32, i32, i32, i32, i32, i32, i32, i32, i32, i32, i32, i32, ptr, ptr, ptr, i32, i32, i32, i32, i32, i32, i32, i32, i32, i32, %struct.AVChannelLayout, i32, i32, i32, i32, i32, i32, i32, i32, ptr, i32, i32, i32, float, float, i32, i32, i32, i32, i32, ptr, i64, i64, float, float, i32, i32, ptr, ptr, i32, i32, i32, i32, i32, ptr, ptr, ptr, ptr, i32, i32, [8 x i64], i32, i32, i32, i32, i32, i32, i32, ptr, ptr, i32, i32, i32, i32, i32, i32, i32, i32, i32, i32, ptr, ptr, i32, i32, ptr, ptr, ptr, ptr, i32, i32, i64, i32, i32, i64, ptr, i64, ptr, i32, ptr, i32 }
%struct.AVChannelLayout = type { i32, i32, %union.anon, ptr }
%union.anon = type { i64 }

@.str.1 = private unnamed_addr constant [30 x i8] c"Assertion %s failed at %s:%d\0A\00", align 1
@.str.3 = private unnamed_addr constant [20 x i8] c"libavcodec/encode.c\00", align 1
@.str.7 = private unnamed_addr constant [28 x i8] c"!avpkt->data && !avpkt->buf\00", align 1
@.str.8 = private unnamed_addr constant [43 x i8] c"No buffer returned by get_encode_buffer()\0A\00", align 1
@.str.9 = private unnamed_addr constant [28 x i8] c"get_encode_buffer() failed\0A\00", align 1

; Function Attrs: nounwind uwtable
define i32 @ff_get_encode_buffer(ptr noundef %0, ptr noundef %1, i64 noundef %2, i32 noundef %3) #0 {
  %5 = alloca i32, align 4
  %6 = alloca ptr, align 8
  %7 = alloca ptr, align 8
  %8 = alloca i64, align 8
  %9 = alloca i32, align 4
  %10 = alloca i32, align 4
  %11 = alloca i32, align 4
  store ptr %0, ptr %6, align 8, !tbaa !4
  store ptr %1, ptr %7, align 8, !tbaa !9
  store i64 %2, ptr %8, align 8, !tbaa !11
  store i32 %3, ptr %9, align 4, !tbaa !41
  call void @llvm.lifetime.start.p0(i64 4, ptr %10) #10
  %12 = load i64, ptr %8, align 8, !tbaa !11
  %13 = icmp slt i64 %12, 0
  br i1 %13, label %17, label %14

14:                                               ; preds = %4
  %15 = load i64, ptr %8, align 8, !tbaa !11
  %16 = icmp sgt i64 %15, 2147483583
  br i1 %16, label %17, label %18

17:                                               ; preds = %14, %4
  store i32 -22, ptr %5, align 4
  store i32 1, ptr %11, align 4
  br label %76

18:                                               ; preds = %14
  br label %19

19:                                               ; preds = %18
  %20 = load ptr, ptr %7, align 8, !tbaa !9
  %21 = getelementptr inbounds nuw %struct.AVPacket, ptr %20, i32 0, i32 3
  %22 = load ptr, ptr %21, align 8, !tbaa !13
  %23 = icmp ne ptr %22, null
  br i1 %23, label %29, label %24

24:                                               ; preds = %19
  %25 = load ptr, ptr %7, align 8, !tbaa !9
  %26 = getelementptr inbounds nuw %struct.AVPacket, ptr %25, i32 0, i32 0
  %27 = load ptr, ptr %26, align 8, !tbaa !42
  %28 = icmp ne ptr %27, null
  br i1 %28, label %29, label %30

29:                                               ; preds = %24, %19
  call void (ptr, i32, ptr, ...) @av_log(ptr noundef null, i32 noundef 0, ptr noundef @.str.1, ptr noundef @.str.7, ptr noundef @.str.3, i32 noundef 113)
  call void @abort() #9
  unreachable

30:                                               ; preds = %24
  br label %31

31:                                               ; preds = %30
  br label %32

32:                                               ; preds = %31
  %33 = load i64, ptr %8, align 8, !tbaa !11
  %34 = trunc i64 %33 to i32
  %35 = load ptr, ptr %7, align 8, !tbaa !9
  %36 = getelementptr inbounds nuw %struct.AVPacket, ptr %35, i32 0, i32 4
  store i32 %34, ptr %36, align 8, !tbaa !40
  %37 = load ptr, ptr %6, align 8, !tbaa !4
  %38 = getelementptr inbounds nuw %struct.AVCodecContext, ptr %37, i32 0, i32 145
  %39 = load ptr, ptr %38, align 8, !tbaa !46
  %40 = load ptr, ptr %6, align 8, !tbaa !4
  %41 = load ptr, ptr %7, align 8, !tbaa !9
  %42 = load i32, ptr %9, align 4, !tbaa !41
  %43 = call i32 %39(ptr noundef %40, ptr noundef %41, i32 noundef %42)
  store i32 %43, ptr %10, align 4, !tbaa !41
  %44 = load i32, ptr %10, align 4, !tbaa !41
  %45 = icmp slt i32 %44, 0
  br i1 %45, label %46, label %47

46:                                               ; preds = %32
  br label %68

47:                                               ; preds = %32
  %48 = load ptr, ptr %7, align 8, !tbaa !9
  %49 = getelementptr inbounds nuw %struct.AVPacket, ptr %48, i32 0, i32 3
  %50 = load ptr, ptr %49, align 8, !tbaa !13
  %51 = icmp ne ptr %50, null
  br i1 %51, label %52, label %57

52:                                               ; preds = %47
  %53 = load ptr, ptr %7, align 8, !tbaa !9
  %54 = getelementptr inbounds nuw %struct.AVPacket, ptr %53, i32 0, i32 0
  %55 = load ptr, ptr %54, align 8, !tbaa !42
  %56 = icmp ne ptr %55, null
  br i1 %56, label %59, label %57

57:                                               ; preds = %52, %47
  %58 = load ptr, ptr %6, align 8, !tbaa !4
  call void (ptr, i32, ptr, ...) @av_log(ptr noundef %58, i32 noundef 16, ptr noundef @.str.8)
  store i32 -22, ptr %10, align 4, !tbaa !41
  br label %68

59:                                               ; preds = %52
  %60 = load ptr, ptr %7, align 8, !tbaa !9
  %61 = getelementptr inbounds nuw %struct.AVPacket, ptr %60, i32 0, i32 3
  %62 = load ptr, ptr %61, align 8, !tbaa !13
  %63 = load ptr, ptr %7, align 8, !tbaa !9
  %64 = getelementptr inbounds nuw %struct.AVPacket, ptr %63, i32 0, i32 4
  %65 = load i32, ptr %64, align 8, !tbaa !40
  %66 = sext i32 %65 to i64
  %67 = getelementptr inbounds i8, ptr %62, i64 %66
  call void @llvm.memset.p0.i64(ptr align 1 %67, i8 0, i64 64, i1 false)
  store i32 0, ptr %10, align 4, !tbaa !41
  br label %68

68:                                               ; preds = %59, %57, %46
  %69 = load i32, ptr %10, align 4, !tbaa !41
  %70 = icmp slt i32 %69, 0
  br i1 %70, label %71, label %74

71:                                               ; preds = %68
  %72 = load ptr, ptr %6, align 8, !tbaa !4
  call void (ptr, i32, ptr, ...) @av_log(ptr noundef %72, i32 noundef 16, ptr noundef @.str.9)
  %73 = load ptr, ptr %7, align 8, !tbaa !9
  call void @av_packet_unref(ptr noundef %73)
  br label %74

74:                                               ; preds = %71, %68
  %75 = load i32, ptr %10, align 4, !tbaa !41
  store i32 %75, ptr %5, align 4
  store i32 1, ptr %11, align 4
  br label %76

76:                                               ; preds = %74, %17
  call void @llvm.lifetime.end.p0(i64 4, ptr %10) #10
  %77 = load i32, ptr %5, align 4
  ret i32 %77
}