; Function Attrs: nounwind uwtable
define range(i32 -2147483648, 1) i32 @ff_get_encode_buffer(ptr noundef %0, ptr noundef %1, i64 noundef %2, i32 noundef %3) local_unnamed_addr #0 {
  %or.cond = icmp ugt i64 %2, 2147483583
  br i1 %or.cond, label %28, label %5

5:                                                ; preds = %4
  %6 = getelementptr inbounds nuw i8, ptr %1, i64 24
  %7 = load ptr, ptr %6, align 8, !tbaa !4
  %.not = icmp eq ptr %7, null
  br i1 %.not, label %8, label %10

8:                                                ; preds = %5
  %9 = load ptr, ptr %1, align 8, !tbaa !37
  %.not25 = icmp eq ptr %9, null
  br i1 %.not25, label %11, label %10

10:                                               ; preds = %8, %5
  tail call void (ptr, i32, ptr, ...) @av_log(ptr noundef null, i32 noundef 0, ptr noundef nonnull @.str.1, ptr noundef nonnull @.str.7, ptr noundef nonnull @.str.3, i32 noundef 113) #8
  tail call void @abort() #9
  unreachable

11:                                               ; preds = %8
  %12 = trunc nuw nsw i64 %2 to i32
  %13 = getelementptr inbounds nuw i8, ptr %1, i64 32
  store i32 %12, ptr %13, align 8, !tbaa !36
  %14 = getelementptr inbounds nuw i8, ptr %0, i64 816
  %15 = load ptr, ptr %14, align 8, !tbaa !41
  %16 = tail call i32 %15(ptr noundef %0, ptr noundef nonnull %1, i32 noundef %3) #8
  %17 = icmp slt i32 %16, 0
  br i1 %17, label %27, label %18

18:                                               ; preds = %11
  %19 = load ptr, ptr %6, align 8, !tbaa !4
  %.not26 = icmp eq ptr %19, null
  br i1 %.not26, label %22, label %20

20:                                               ; preds = %18
  %21 = load ptr, ptr %1, align 8, !tbaa !37
  %.not27 = icmp eq ptr %21, null
  br i1 %.not27, label %22, label %23

22:                                               ; preds = %20, %18
  tail call void (ptr, i32, ptr, ...) @av_log(ptr noundef nonnull %0, i32 noundef 16, ptr noundef nonnull @.str.8) #8
  br label %27

23:                                               ; preds = %20
  %24 = load i32, ptr %13, align 8, !tbaa !36
  %25 = sext i32 %24 to i64
  %26 = getelementptr inbounds i8, ptr %19, i64 %25
  tail call void @llvm.memset.p0.i64(ptr noundef nonnull align 1 dereferenceable(64) %26, i8 0, i64 64, i1 false)
  br label %28

27:                                               ; preds = %11, %22
  %.0.ph = phi i32 [ -22, %22 ], [ %16, %11 ]
  tail call void (ptr, i32, ptr, ...) @av_log(ptr noundef nonnull %0, i32 noundef 16, ptr noundef nonnull @.str.9) #8
  tail call void @av_packet_unref(ptr noundef nonnull %1) #8
  br label %28

28:                                               ; preds = %23, %27, %4
  %.021 = phi i32 [ -22, %4 ], [ %.0.ph, %27 ], [ 0, %23 ]
  ret i32 %.021
}